Certificate:
    Data:
        Version: 3 (0x2)
        Serial Number: 11638974420400263287 (0xa185f191c5d0d077)
    Signature Algorithm: sha1WithRSAEncryption
        Issuer: C=PL, ST=Malopolska, O=Kaflog, OU=PrivateCA, CN=cloudera-master/emailAddress=support@kaflog.com
        Validity
            Not Before: Jun  4 11:03:16 2014 GMT
            Not After : Jun  3 11:03:16 2017 GMT
        Subject: C=PL, ST=Malopolska, O=Kaflog, OU=PrivateCA, CN=cloudera-master/emailAddress=support@kaflog.com
        Subject Public Key Info:
            Public Key Algorithm: rsaEncryption
                Public-Key: (1024 bit)
                Modulus:
                    00:e0:24:64:d5:28:69:b7:bb:91:38:49:99:18:47:
                    76:bc:df:0a:5c:07:e4:61:6a:f7:93:2d:5e:80:6d:
                    40:36:da:2f:67:5b:45:42:72:f1:65:a5:40:70:6e:
                    d1:df:30:0a:89:f3:0b:09:00:5e:85:e5:95:f9:84:
                    b0:b6:31:95:32:54:7b:79:8c:3a:3d:41:51:57:c6:
                    a7:b6:11:07:94:8c:f2:b5:11:1f:eb:77:1d:4d:03:
                    c4:fe:37:d3:4b:0e:c6:04:39:f7:eb:cf:53:c8:29:
                    7a:d6:44:28:75:68:86:0a:0f:3e:07:bc:c0:d7:d0:
                    5b:ab:72:a3:64:0a:21:1d:63
                Exponent: 65537 (0x10001)
        X509v3 extensions:
            X509v3 Subject Key Identifier: 
                89:44:62:D4:27:36:FC:8E:7F:30:D3:48:93:7E:A3:B4:E7:FF:92:A1
            X509v3 Authority Key Identifier: 
                keyid:89:44:62:D4:27:36:FC:8E:7F:30:D3:48:93:7E:A3:B4:E7:FF:92:A1

            X509v3 Basic Constraints: 
                CA:TRUE
    Signature Algorithm: sha1WithRSAEncryption
         35:2a:d5:9c:8a:4d:11:15:9f:c2:58:c2:0a:5a:5b:f1:cc:05:
         6e:7e:a4:81:5e:1c:05:96:84:a1:90:24:55:ce:8b:ed:6f:89:
         7f:84:58:ce:c4:07:cc:4a:1a:fb:ee:cb:e6:b8:51:80:de:1c:
         0c:93:23:5c:37:d8:8d:3f:9d:d4:52:99:6c:8d:bb:93:22:15:
         1e:7c:60:d4:45:5f:3d:7f:5d:91:16:91:20:5a:16:ae:89:1b:
         9b:d0:b5:27:bc:ff:c2:64:4b:ed:ad:e9:fb:59:26:a3:ca:07:
         f9:f6:38:4b:14:da:d9:0f:89:2e:96:db:32:65:3c:87:d8:c8:
         94:45
-----BEGIN CERTIFICATE-----
MIIC2DCCAkGgAwIBAgIJAKGF8ZHF0NB3MA0GCSqGSIb3DQEBBQUAMIGEMQswCQYD
VQQGEwJQTDETMBEGA1UECAwKTWFsb3BvbHNrYTEPMA0GA1UECgwGS2FmbG9nMRIw
EAYDVQQLDAlQcml2YXRlQ0ExGDAWBgNVBAMMD2Nsb3VkZXJhLW1hc3RlcjEhMB8G
CSqGSIb3DQEJARYSc3VwcG9ydEBrYWZsb2cuY29tMB4XDTE0MDYwNDExMDMxNloX
DTE3MDYwMzExMDMxNlowgYQxCzAJBgNVBAYTAlBMMRMwEQYDVQQIDApNYWxvcG9s
c2thMQ8wDQYDVQQKDAZLYWZsb2cxEjAQBgNVBAsMCVByaXZhdGVDQTEYMBYGA1UE
AwwPY2xvdWRlcmEtbWFzdGVyMSEwHwYJKoZIhvcNAQkBFhJzdXBwb3J0QGthZmxv
Zy5jb20wgZ8wDQYJKoZIhvcNAQEBBQADgY0AMIGJAoGBAOAkZNUoabe7kThJmRhH
drzfClwH5GFq95MtXoBtQDbaL2dbRUJy8WWlQHBu0d8wConzCwkAXoXllfmEsLYx
lTJUe3mMOj1BUVfGp7YRB5SM8rURH+t3HU0DxP4300sOxgQ59+vPU8gpetZEKHVo
hgoPPge8wNfQW6tyo2QKIR1jAgMBAAGjUDBOMB0GA1UdDgQWBBSJRGLUJzb8jn8w
00iTfqO05/+SoTAfBgNVHSMEGDAWgBSJRGLUJzb8jn8w00iTfqO05/+SoTAMBgNV
HRMEBTADAQH/MA0GCSqGSIb3DQEBBQUAA4GBADUq1ZyKTREVn8JYwgpaW/HMBW5+
pIFeHAWWhKGQJFXOi+1viX+EWM7EB8xKGvvuy+a4UYDeHAyTI1w32I0/ndRSmWyN
u5MiFR58YNRFXz1/XZEWkSBaFq6JG5vQtSe8/8JkS+2t6ftZJqPKB/n2OEsU2tkP
iS6W2zJlPIfYyJRF
-----END CERTIFICATE-----
