-----BEGIN PRIVATE KEY-----
MIICdQIBADANBgkqhkiG9w0BAQEFAASCAl8wggJbAgEAAoGBAKViffyCYyyzbwgy
WrMERWa61t05/ZXKfA0ageAoyp6+8hffzaEmgOaKSbUSVzfQPDtm4mt295YMR0um
+yFCltd2vGom0t5UtJ0qy/tF6us+OvwNW3g9LLaJEt+Va/jcGAM7TMHmFcT3tLIC
uESxjcDds1r/RT+3kMve5HaRjBhTAgMBAAECgYAGKjy+C/I8eVfbO11MLQ2VPcPC
rWW5jrm/F0zeGUcsUbvejfYxWqkVbvQ+breXmgiUwkoQbXffPQfvVwMngz7yK93i
tITmBQJEJ1X/YXD+X7GMvpU1JxFllXXvY1qBQ+4ZLDo6uEfuHn8xeGMaDTIVZmtZ
kI1NpkXbiNYs+VF8GQJBANXCDM3kXBeAXNAGYpNWrmnfSPkH1r+ACzutGbHo1Z6G
bNh2fwNdWUyGL+r0U3jW4Gac18XIeXaPewXL0gm/wU8CQQDGEUDoOFQkO/0fIYa7
jTxxcflGNhulb9K3zxob5mm30c/8anBPhzuGk9e/5GGGPoQyr9IkH84oU5hzeyoV
vU+9AkBGxjg9F4YSVfLlAagzxnh7H23m3lyRDVEq0hZ23HOWSEXTqfBF6et+NdO5
xGm60dJ8xyN+HfFxevItqh2CEtZrAkBkbztKhcWk2gZwUr/POr77h5+vSqCaMynW
qt3CaAQTggDFLfPlX91/UFiGpXgOaoT+bslQKBCRwlH7vOiKPYTBAkBjxp7WZEwb
q0j4zcWIRjsqVRniXIvtRz2oD6n76tww6qmvrNUzRqH3OPPqLe3OkfuVeAvIZ8hC
ik6MC6siZTZm
-----END PRIVATE KEY-----
Certificate:
    Data:
        Version: 3 (0x2)
        Serial Number: 11638974420400263289 (0xa185f191c5d0d079)
    Signature Algorithm: sha1WithRSAEncryption
        Issuer: C=PL, ST=Malopolska, O=Kaflog, OU=PrivateCA, CN=cloudera-master/emailAddress=support@kaflog.com
        Validity
            Not Before: Jun  4 11:22:05 2014 GMT
            Not After : Jun  4 11:22:05 2015 GMT
        Subject: C=PL, ST=Malopolska, L=Krakow, O=Kaflog, OU=PrivateCA, CN=kafka-node/emailAddress=support@kaflog.com
        Subject Public Key Info:
            Public Key Algorithm: rsaEncryption
                Public-Key: (1024 bit)
                Modulus:
                    00:a5:62:7d:fc:82:63:2c:b3:6f:08:32:5a:b3:04:
                    45:66:ba:d6:dd:39:fd:95:ca:7c:0d:1a:81:e0:28:
                    ca:9e:be:f2:17:df:cd:a1:26:80:e6:8a:49:b5:12:
                    57:37:d0:3c:3b:66:e2:6b:76:f7:96:0c:47:4b:a6:
                    fb:21:42:96:d7:76:bc:6a:26:d2:de:54:b4:9d:2a:
                    cb:fb:45:ea:eb:3e:3a:fc:0d:5b:78:3d:2c:b6:89:
                    12:df:95:6b:f8:dc:18:03:3b:4c:c1:e6:15:c4:f7:
                    b4:b2:02:b8:44:b1:8d:c0:dd:b3:5a:ff:45:3f:b7:
                    90:cb:de:e4:76:91:8c:18:53
                Exponent: 65537 (0x10001)
        X509v3 extensions:
            X509v3 Basic Constraints: 
                CA:FALSE
            Netscape Comment: 
                OpenSSL Generated Certificate
            X509v3 Subject Key Identifier: 
                70:BF:D1:B5:82:3B:63:2A:C7:EC:77:8C:B3:71:8F:17:F2:48:87:AD
            X509v3 Authority Key Identifier: 
                keyid:89:44:62:D4:27:36:FC:8E:7F:30:D3:48:93:7E:A3:B4:E7:FF:92:A1

    Signature Algorithm: sha1WithRSAEncryption
         20:48:79:a5:37:25:4c:13:c8:9a:77:eb:87:a3:ea:50:7c:17:
         b2:38:13:7f:ab:08:44:2f:e2:ca:b3:b2:b6:1a:b8:d4:c9:01:
         04:64:95:59:67:d5:91:ea:bd:c4:73:91:bd:d7:83:17:a2:74:
         f3:d4:e6:5d:1c:bd:8a:0a:ed:09:49:0b:91:1e:78:71:e0:87:
         cb:7b:0e:0a:38:57:56:8d:57:10:a3:b7:9b:d6:83:c0:8d:3b:
         47:e5:38:9c:b2:bb:42:d7:20:07:32:9c:15:88:6f:77:d5:ba:
         36:54:43:a7:2c:58:30:1d:e6:24:41:fa:a5:0c:90:5f:10:4b:
         18:03
-----BEGIN CERTIFICATE-----
MIIDDzCCAnigAwIBAgIJAKGF8ZHF0NB5MA0GCSqGSIb3DQEBBQUAMIGEMQswCQYD
VQQGEwJQTDETMBEGA1UECAwKTWFsb3BvbHNrYTEPMA0GA1UECgwGS2FmbG9nMRIw
EAYDVQQLDAlQcml2YXRlQ0ExGDAWBgNVBAMMD2Nsb3VkZXJhLW1hc3RlcjEhMB8G
CSqGSIb3DQEJARYSc3VwcG9ydEBrYWZsb2cuY29tMB4XDTE0MDYwNDExMjIwNVoX
DTE1MDYwNDExMjIwNVowgZAxCzAJBgNVBAYTAlBMMRMwEQYDVQQIDApNYWxvcG9s
c2thMQ8wDQYDVQQHDAZLcmFrb3cxDzANBgNVBAoMBkthZmxvZzESMBAGA1UECwwJ
UHJpdmF0ZUNBMRMwEQYDVQQDDAprYWZrYS1ub2RlMSEwHwYJKoZIhvcNAQkBFhJz
dXBwb3J0QGthZmxvZy5jb20wgZ8wDQYJKoZIhvcNAQEBBQADgY0AMIGJAoGBAKVi
ffyCYyyzbwgyWrMERWa61t05/ZXKfA0ageAoyp6+8hffzaEmgOaKSbUSVzfQPDtm
4mt295YMR0um+yFCltd2vGom0t5UtJ0qy/tF6us+OvwNW3g9LLaJEt+Va/jcGAM7
TMHmFcT3tLICuESxjcDds1r/RT+3kMve5HaRjBhTAgMBAAGjezB5MAkGA1UdEwQC
MAAwLAYJYIZIAYb4QgENBB8WHU9wZW5TU0wgR2VuZXJhdGVkIENlcnRpZmljYXRl
MB0GA1UdDgQWBBRwv9G1gjtjKsfsd4yzcY8X8kiHrTAfBgNVHSMEGDAWgBSJRGLU
Jzb8jn8w00iTfqO05/+SoTANBgkqhkiG9w0BAQUFAAOBgQAgSHmlNyVME8iad+uH
o+pQfBeyOBN/qwhEL+LKs7K2GrjUyQEEZJVZZ9WR6r3Ec5G914MXonTz1OZdHL2K
Cu0JSQuRHnhx4IfLew4KOFdWjVcQo7eb1oPAjTtH5TicsrtC1yAHMpwViG931bo2
VEOnLFgwHeYkQfqlDJBfEEsYAw==
-----END CERTIFICATE-----
