-----BEGIN PRIVATE KEY-----
MIICeQIBADANBgkqhkiG9w0BAQEFAASCAmMwggJfAgEAAoGBAOZWzZbTx2azN1Zh
7dDrvmFS+13+3ZSZjpfO9IKlKqWwCY6HhsezcvOq1wxoyEC5wR27XnQmNSmglFRz
AQuzRyKfxG0Bh31++RhJzh6vxOe6lcVcj2LJVU4FmgWwVsVqRC0vEgRlNR8+IX71
O5goNjTVGk0LBPy/u+RqG8woXC7VAgMBAAECgYEAoLwwKTFN85/aXOBnmSP5LWc/
3B7vNzRU6iDURZrGgOqwMJLofdD+xYURHiq8m1ZEqd/HkNvcu1jASZIbR7PqTa7d
zQYIYzBLHt4pRsyOasDBuCHLb02lVXgTRq57iUqzZHxYU4+u+WW07/Sr7COZwi2E
0ClXPvdzvwVDu8vxUMECQQD9tK7lAM8B4/s5tcoAgw6zQkfWj+LXGy9ZVJnIx1I7
X+2ixlvsT59wn28A7OkaTaUfVfgcp1NUZcKA+gfOecglAkEA6GwG7Wb8cx3oGITP
G3+3rp3Z1RW7vCCQzWTtQIvASOC/pb/WzIA4LSBRKJuAkWp9s12U/vuxz9sqOpMH
2w508QJBAMVkRQcrv+Pqq1ZVWFtZnKBgG2CXBpjyL77DEfujCRnlIxEYYADWWmjX
wxfnO94ZNzXQP4CbtzvdCJ4s6tH88nkCQQCCZunUFO4bIHJyH0GcKiJCpGntdg4o
1RSpSLEcf8xYl1CvjFzVzDK4juM6J1URQXBZTG4mSc1P06Vzy76ilw/hAkEAsFap
eIDyVHYQGFbAw5eD7tHLRamKMCMM09fKL0hwN31wR9hXO/TVzHcPeOwKm9fAR10d
rhE+IfFLeDX00UdcSQ==
-----END PRIVATE KEY-----
Certificate:
    Data:
        Version: 3 (0x2)
        Serial Number: 11638974420400263288 (0xa185f191c5d0d078)
    Signature Algorithm: sha1WithRSAEncryption
        Issuer: C=PL, ST=Malopolska, O=Kaflog, OU=PrivateCA, CN=cloudera-master/emailAddress=support@kaflog.com
        Validity
            Not Before: Jun  4 11:04:33 2014 GMT
            Not After : Jun  4 11:04:33 2015 GMT
        Subject: C=PL, ST=Malopolska, L=Krakow, O=Kaflog, OU=PrivateCA, CN=cloudera-master/emailAddress=support@kaflog.com
        Subject Public Key Info:
            Public Key Algorithm: rsaEncryption
                Public-Key: (1024 bit)
                Modulus:
                    00:e6:56:cd:96:d3:c7:66:b3:37:56:61:ed:d0:eb:
                    be:61:52:fb:5d:fe:dd:94:99:8e:97:ce:f4:82:a5:
                    2a:a5:b0:09:8e:87:86:c7:b3:72:f3:aa:d7:0c:68:
                    c8:40:b9:c1:1d:bb:5e:74:26:35:29:a0:94:54:73:
                    01:0b:b3:47:22:9f:c4:6d:01:87:7d:7e:f9:18:49:
                    ce:1e:af:c4:e7:ba:95:c5:5c:8f:62:c9:55:4e:05:
                    9a:05:b0:56:c5:6a:44:2d:2f:12:04:65:35:1f:3e:
                    21:7e:f5:3b:98:28:36:34:d5:1a:4d:0b:04:fc:bf:
                    bb:e4:6a:1b:cc:28:5c:2e:d5
                Exponent: 65537 (0x10001)
        X509v3 extensions:
            X509v3 Basic Constraints: 
                CA:FALSE
            Netscape Comment: 
                OpenSSL Generated Certificate
            X509v3 Subject Key Identifier: 
                79:7E:AD:10:4E:44:E8:62:6C:82:EE:A0:8F:3C:78:A7:E9:4C:80:1D
            X509v3 Authority Key Identifier: 
                keyid:89:44:62:D4:27:36:FC:8E:7F:30:D3:48:93:7E:A3:B4:E7:FF:92:A1

    Signature Algorithm: sha1WithRSAEncryption
         5e:4f:a1:f5:2d:50:1a:fe:e4:b7:7a:8d:4d:22:59:47:a2:ae:
         2f:37:b6:fe:6f:46:6b:ef:4d:fb:cc:c9:e6:d9:17:4d:2a:0e:
         b7:c5:64:00:0d:06:9d:eb:d0:96:fe:e3:06:59:36:f4:d3:c2:
         6e:42:69:d4:e5:82:5d:69:d2:6f:9f:71:10:e4:72:9b:06:a1:
         bf:25:0e:77:7b:15:3e:90:8e:94:3e:fc:04:64:7f:41:8a:65:
         35:f7:43:47:b0:59:2e:66:ff:3e:31:0a:c9:cf:5d:a6:46:1c:
         1c:06:1f:d2:b9:6d:49:a8:5d:18:ec:c3:55:fb:2f:82:b1:a4:
         8b:4d
-----BEGIN CERTIFICATE-----
MIIDFDCCAn2gAwIBAgIJAKGF8ZHF0NB4MA0GCSqGSIb3DQEBBQUAMIGEMQswCQYD
VQQGEwJQTDETMBEGA1UECAwKTWFsb3BvbHNrYTEPMA0GA1UECgwGS2FmbG9nMRIw
EAYDVQQLDAlQcml2YXRlQ0ExGDAWBgNVBAMMD2Nsb3VkZXJhLW1hc3RlcjEhMB8G
CSqGSIb3DQEJARYSc3VwcG9ydEBrYWZsb2cuY29tMB4XDTE0MDYwNDExMDQzM1oX
DTE1MDYwNDExMDQzM1owgZUxCzAJBgNVBAYTAlBMMRMwEQYDVQQIDApNYWxvcG9s
c2thMQ8wDQYDVQQHDAZLcmFrb3cxDzANBgNVBAoMBkthZmxvZzESMBAGA1UECwwJ
UHJpdmF0ZUNBMRgwFgYDVQQDDA9jbG91ZGVyYS1tYXN0ZXIxITAfBgkqhkiG9w0B
CQEWEnN1cHBvcnRAa2FmbG9nLmNvbTCBnzANBgkqhkiG9w0BAQEFAAOBjQAwgYkC
gYEA5lbNltPHZrM3VmHt0Ou+YVL7Xf7dlJmOl870gqUqpbAJjoeGx7Ny86rXDGjI
QLnBHbtedCY1KaCUVHMBC7NHIp/EbQGHfX75GEnOHq/E57qVxVyPYslVTgWaBbBW
xWpELS8SBGU1Hz4hfvU7mCg2NNUaTQsE/L+75GobzChcLtUCAwEAAaN7MHkwCQYD
VR0TBAIwADAsBglghkgBhvhCAQ0EHxYdT3BlblNTTCBHZW5lcmF0ZWQgQ2VydGlm
aWNhdGUwHQYDVR0OBBYEFHl+rRBOROhibILuoI88eKfpTIAdMB8GA1UdIwQYMBaA
FIlEYtQnNvyOfzDTSJN+o7Tn/5KhMA0GCSqGSIb3DQEBBQUAA4GBAF5PofUtUBr+
5Ld6jU0iWUeiri83tv5vRmvvTfvMyebZF00qDrfFZAANBp3r0Jb+4wZZNvTTwm5C
adTlgl1p0m+fcRDkcpsGob8lDnd7FT6QjpQ+/ARkf0GKZTX3Q0ewWS5m/z4xCsnP
XaZGHBwGH9K5bUmoXRjsw1X7L4KxpItN
-----END CERTIFICATE-----
-----BEGIN DH PARAMETERS-----
MIIBCAKCAQEA6YEehddD5Y5n7SP7qRX62HPLHdyLFreHtETadyQJb5n0xwjpjd2d
pSc8pA8HYW6tPNK64mMmQbNNBj3a1s5Ii87qrzmCoXeRVDmVmCEnaZhD+ObItyno
NFvRyeZnQRC8Cb/mP28EmU8buvEWwf6XkRYDQyTFQlQKbd0iUdZaa5a7ptyJdqt0
IQKDYJiT+wdGSPkN5bpdO1Ryc5wXlTFL0qclF1QT7zS7sdHt76uQq/CQJ1POv9qB
JEUbiPO4b450Aol673kOD66SkJCp3wGd5MJ1Fp4M2Nq4D6Yb6JG6ibAeA91wpg6o
l6K+KDRtcLEQb3dwNh+X2WcBBKRbNGYx6wIBAg==
-----END DH PARAMETERS-----
